target datalayout = "e-m:e-p270:32:32-p271:32:32-p272:64:64-i64:64-i128:128-f80:128-n8:16:32:64-S128"
target triple = "x86_64-pc-linux-gnu"

%struct.dsa_gen_ctx = type { ptr, ptr, i32, i64, i64, ptr, i64, i32, i32, i32, i32, ptr, ptr, ptr, ptr }

@.str = private unnamed_addr constant [57 x i8] c"../openssl/providers/implementations/keymgmt/dsa_kmgmt.c\00", align 1

; Function Attrs: nounwind uwtable
define internal i32 @dsa_set_gen_seed(ptr noundef %0, ptr noundef %1, i64 noundef %2) #0 {
  %4 = alloca i32, align 4
  %5 = alloca ptr, align 8
  %6 = alloca ptr, align 8
  %7 = alloca i64, align 8
  store ptr %0, ptr %5, align 8, !tbaa !13
  store ptr %1, ptr %6, align 8, !tbaa !53
  store i64 %2, ptr %7, align 8, !tbaa !48
  %8 = load ptr, ptr %5, align 8, !tbaa !13
  %9 = getelementptr inbounds nuw %struct.dsa_gen_ctx, ptr %8, i32 0, i32 5
  %10 = load ptr, ptr %9, align 8, !tbaa !41
  %11 = load ptr, ptr %5, align 8, !tbaa !13
  %12 = getelementptr inbounds nuw %struct.dsa_gen_ctx, ptr %11, i32 0, i32 6
  %13 = load i64, ptr %12, align 8, !tbaa !42
  call void @CRYPTO_clear_free(ptr noundef %10, i64 noundef %13, ptr noundef @.str, i32 noundef 453)
  %14 = load ptr, ptr %5, align 8, !tbaa !13
  %15 = getelementptr inbounds nuw %struct.dsa_gen_ctx, ptr %14, i32 0, i32 5
  store ptr null, ptr %15, align 8, !tbaa !41
  %16 = load ptr, ptr %5, align 8, !tbaa !13
  %17 = getelementptr inbounds nuw %struct.dsa_gen_ctx, ptr %16, i32 0, i32 6
  store i64 0, ptr %17, align 8, !tbaa !42
  %18 = load ptr, ptr %6, align 8, !tbaa !53
  %19 = icmp ne ptr %18, null
  br i1 %19, label %20, label %38

20:                                               ; preds = %3
  %21 = load i64, ptr %7, align 8, !tbaa !48
  %22 = icmp ugt i64 %21, 0
  br i1 %22, label %23, label %38

23:                                               ; preds = %20
  %24 = load ptr, ptr %6, align 8, !tbaa !53
  %25 = load i64, ptr %7, align 8, !tbaa !48
  %26 = call noalias ptr @CRYPTO_memdup(ptr noundef %24, i64 noundef %25, ptr noundef @.str, i32 noundef 457)
  %27 = load ptr, ptr %5, align 8, !tbaa !13
  %28 = getelementptr inbounds nuw %struct.dsa_gen_ctx, ptr %27, i32 0, i32 5
  store ptr %26, ptr %28, align 8, !tbaa !41
  %29 = load ptr, ptr %5, align 8, !tbaa !13
  %30 = getelementptr inbounds nuw %struct.dsa_gen_ctx, ptr %29, i32 0, i32 5
  %31 = load ptr, ptr %30, align 8, !tbaa !41
  %32 = icmp eq ptr %31, null
  br i1 %32, label %33, label %34

33:                                               ; preds = %23
  store i32 0, ptr %4, align 4
  br label %39

34:                                               ; preds = %23
  %35 = load i64, ptr %7, align 8, !tbaa !48
  %36 = load ptr, ptr %5, align 8, !tbaa !13
  %37 = getelementptr inbounds nuw %struct.dsa_gen_ctx, ptr %36, i32 0, i32 6
  store i64 %35, ptr %37, align 8, !tbaa !42
  br label %38

38:                                               ; preds = %34, %20, %3
  store i32 1, ptr %4, align 4
  br label %39

39:                                               ; preds = %38, %33
  %40 = load i32, ptr %4, align 4
  ret i32 %40
}